A51 MACRO ASSEMBLER  PROJETO                                                              10/17/2015 12:37:49 PAGE     1


MACRO ASSEMBLER A51 V8.02c
OBJECT MODULE PLACED IN .\Objects\projeto.obj
ASSEMBLER INVOKED BY: C:\Keil_v5\C51\BIN\A51.EXE projeto.a51 NOMOD51 SET(SMALL) DEBUG PRINT(.\Listings\projeto.lst) OBJE
                      CT(.\Objects\projeto.obj) EP

LOC  OBJ            LINE     SOURCE

                       1     ;#include <reg52.inc>
                +1     2     ;-------------------------------------------------------------------------------
                +1     3     ; Copyright 1995-1996 KEIL Software, Inc.
                +1     4     ; 8052 Processor Declarations
                +1     5     ;-------------------------------------------------------------------------------
                +1     6  +1 $save 
                +1   107  +1 $restore 
                +1   108     
                     109     
                     110     
  0001               111     TEMPO_OPERACAO_MOEDA EQU 1
  001E               112     TEMPO_LIGA_ALERTA EQU 30
  0002               113     TEMPO_LUZ_ALERTA EQU 2
                     114     
  FF10               115     LCD_COMANDO  EQU 0FF10h
  FF11               116     LCD_DADO         EQU 0FF11h
                     117     
  REG                118     VALOR_DEBITO EQU R7
                     119     
0000 022500          120     JMP 2500H
2500                 121     ORG 2500H
                     122     
                     123     ; SETUP DO TIMER 2 (TIMER CONTARA 50MS)
2500 75C804          124     MOV T2CON, #00000100b
2503 75CB3C          125     MOV RCAP2H, #03Ch
2506 75CAB0          126     MOV RCAP2L, #0B0h
2509 85CBCD          127     MOV TH2,        RCAP2H
250C 85CACC          128     MOV TL2,        RCAP2L
                     129     
                     130     ; Habilita interrupcao gerada pelo estouro do timer 2
                     131     ;SETB ET2
                     132     ; Habilita interrupções no processador
250F D2AF            133     SETB EA
                     134     
                     135     ; SETUP LCD
2511 D13C            136     CALL LCD_INIT_STEP1
2513 D13C            137     CALL LCD_INIT_STEP1
2515 D145            138     CALL LCD_INIT_STEP2
                     139             
2517                 140     REINICIA_CANCELA:
                     141     
                     142             ; LIMPA P1 (CANCELA SERA FECHADA AQUI CASO ESTEJA ABERTA)
2517 B12F            143             CALL REINICIA
                     144     
                     145             ; AGUARDA ATÉ VEICULO ATIVAR O PRIMEIRO SENSOR E SALVA VALOR DA PORTA NO ACUMULADO
                             R
2519 B143            146             CALL ESPERA_POR_VEICULO
                     147     
                     148             ; PEGA VALOR DEVIDO E COLOCA NA VARIAVEL "VALOR_DEBITO"
251B B149            149             CALL PEGA_VALOR_DEBITO
                     150     
                     151             ; AGUARDA PELO PAGAMENTO DO DEBITO
251D B171            152             CALL AGUARDA_PAGAMENTO
                     153             
251F 7802            154             MOV R0, #2 ; PARAMETRO PARA A FUNCAO
2521 D124            155             CALL AGUARDA_N_SEGUNDOS
                     156             
A51 MACRO ASSEMBLER  PROJETO                                                              10/17/2015 12:37:49 PAGE     2

2523 D116            157             CALL ABRE_CANCELA
                     158     
2525 D120            159             CALL AGUARDA_PASSAGEM_VEICULO
                     160     
2527 7804            161             MOV R0, #4 ; PARAMETRO PARA A FUNCAO
2529 D124            162             CALL AGUARDA_N_SEGUNDOS
                     163     
252B 80EA            164     JMP REINICIA_CANCELA
                     165     
252D 80FE            166     JMP $
                     167     
                     168     ; FUNCOES
                     169     
                     170     ;------------------------------------------------------
                     171     ; RESETA CANCELA PAR AO ESTADO INICIAL
252F                 172     REINICIA:
252F 7F00            173             MOV VALOR_DEBITO, #0
                     174             ;MOV P1, #0 ; Utilizar somente no simulador
2531 C296            175             CLR P1.6
2533 C297            176             CLR P1.7
2535 C2B2            177             CLR P3.2
2537 C2B3            178             CLR P3.3
2539 C2B5            179             CLR P3.5
253B D156            180             CALL LCD_LIMPA_TELA
253D 903000          181             MOV DPTR, #MSG_AGUARDANDO_VEICULO
2540 D1A4            182             CALL LCD_ENVIA_FRASE
2542 22              183     RET
                     184     
                     185     ;------------------------------------------------------
                     186     ; AGUARDA ATE O VEICULO CHEGAR NO S1
2543                 187     ESPERA_POR_VEICULO: 
2543                 188             EPV_LOOP:
2543 3090FD          189             JNB P1.0, EPV_LOOP
2546 E590            190             MOV A, P1
2548 22              191     RET
                     192     
                     193     ;------------------------------------------------------
                     194     ; COM BASE NO VALOR DO ACUMULADOR DETERMINA VALOR DO DEBITO PARA O VEICULO (GUARDA RESULTAD
                             O NA VARIAVEL "VALOR_DEBITO")
2549                 195     PEGA_VALOR_DEBITO:      
                     196             
2549 309307          197             JNB P1.3, PULA_VALOR_4_EIXOS    
254C 7F0A            198                     MOV VALOR_DEBITO, #10
254E 903200          199                     MOV DPTR, #MSG_4_EIXOS          
2551 8019            200                     JMP PULA_FIM_VALOR_DEBITO
2553                 201             PULA_VALOR_4_EIXOS:
                     202             
2553 309207          203             JNB P1.2, PULA_VALOR_3_EIXOS
2556 7F07            204                     MOV VALOR_DEBITO, #7
2558 903150          205                     MOV DPTR, #MSG_3_EIXOS
255B 800F            206                     JMP PULA_FIM_VALOR_DEBITO
255D                 207             PULA_VALOR_3_EIXOS:
                     208             
255D 309107          209             JNB P1.1, PULA_VALOR_CARRO
2560 7F05            210                     MOV VALOR_DEBITO, #5
2562 903100          211                     MOV DPTR, #MSG_CARRO
2565 8005            212                     JMP PULA_FIM_VALOR_DEBITO
2567                 213             PULA_VALOR_CARRO:
                     214             
2567 7F00            215             MOV VALOR_DEBITO, #0
2569 903050          216             MOV DPTR, #MSG_MOTO
                     217                     
256C                 218             PULA_FIM_VALOR_DEBITO:
256C D156            219             CALL LCD_LIMPA_TELA
256E D1A4            220             CALL LCD_ENVIA_FRASE
2570 22              221     RET
A51 MACRO ASSEMBLER  PROJETO                                                              10/17/2015 12:37:49 PAGE     3

                     222     
                     223     ;------------------------------------------------------
                     224     ; AGUARDA PAGAMENTO DO DEBITO
2571                 225     AGUARDA_PAGAMENTO:
                     226             ; SE VALOR_DEBITO FOR 0 RETORNA IMEDIATAMENTE
2571 EF              227             MOV A, VALOR_DEBITO
2572 7001            228             JNZ AP_RUN
2574 22              229                     RET
2575                 230             AP_RUN:
                     231     
                     232             ; Habilita RN (Recebimento de notas)
2575 D296            233             SETB P1.6
                     234             ; DEFINE PARAMETRO PARA ITERACOES A CADA SEGUNDO
2577 7801            235             MOV R0, #1
                     236             
2579 B1B0            237             CALL RESETA_LUZ_ALERTA
257B                 238             AP_LOOP:
                     239             
                     240                     
257B C083            241                     PUSH DPH
257D C082            242                     PUSH DPL
                     243                     
257F D180            244                     CALL LCD_SEGUNDA_LINHA
2581 903350          245                     MOV DPTR, #MSG_DEBITO
2584 D1A4            246                     CALL LCD_ENVIA_FRASE
2586 B1FC            247                     CALL LCD_ENVIA_VALOR_A
                     248                     
2588 D082            249                     POP DPL
258A D083            250                     POP DPH
                     251                     
                     252                     
                     253                     
258C C3              254                     CLR C
                     255                     
                     256                     ; CHECA SE FOI INSERIDA NOTA DE 2 (N2)
258D 309406          257                     JNB     P1.4, AP_PULA_NOTA_2    
2590 9402            258                             SUBB A, #2
                     259                             ;CLR P1.4
2592 B1B0            260                             CALL RESETA_LUZ_ALERTA
2594 8009            261                             JMP AP_FORA_NOTA
2596                 262                     AP_PULA_NOTA_2:
                     263     
2596 309506          264                     JNB     P1.5, AP_PULA_NOTA_5
2599 9405            265                             SUBB A, #5
                     266                             ;CLR P1.5
259B B1B0            267                             CALL RESETA_LUZ_ALERTA
259D 8000            268                             JMP AP_FORA_NOTA
259F                 269                     AP_PULA_NOTA_5:
                     270                     
259F                 271                     AP_FORA_NOTA:
                     272                     
                     273                     ; CASO VALOR FIQUE NEGATIVO SAI DO LOOP
259F 4008            274                     JC AP_TROCO
                     275                     
                     276                     ; EXECUTA VERIFICAÇÃO E ATIVA/DESATIVA LUZ SE NECESSARIO
25A1 B1B7            277                     CALL STATUS_LUZ_ALERTA          
                     278     
25A3 D124            279                     CALL AGUARDA_N_SEGUNDOS
                     280     
25A5 70D4            281             JNZ AP_LOOP
                     282             
25A7 8004            283             JMP AP_RET
                     284             
25A9                 285             AP_TROCO:
                     286             ; Desabilita RN (Recebimento de notas)
25A9 C296            287             CLR P1.6
A51 MACRO ASSEMBLER  PROJETO                                                              10/17/2015 12:37:49 PAGE     4

25AB B1C9            288                     CALL DA_TROCO
                     289     
25AD                 290             AP_RET:
                     291             ; Desabilita RN (Recebimento de notas)
25AD C296            292             CLR P1.6
                     293     
                     294             
25AF 22              295     RET
                     296     
25B0                 297     RESETA_LUZ_ALERTA:
25B0 791E            298             MOV R1, #TEMPO_LIGA_ALERTA
25B2 7A01            299             MOV R2, #1
25B4 C2B5            300             CLR P3.5
25B6 22              301     RET
                     302     
25B7                 303     STATUS_LUZ_ALERTA:
25B7 D90F            304     DJNZ R1, AP_PULA_LUZ
25B9 7901            305             MOV R1, #1
25BB DA0B            306             DJNZ R2, AP_PULA_LUZ
25BD 7A02            307                     MOV R2, #TEMPO_LUZ_ALERTA
25BF 20B504          308                     JB P3.5, AP_DESATIVA_LUZ
25C2 D2B5            309                             SETB P3.5
25C4 8002            310                             JMP AP_PULA_LUZ
25C6                 311                     AP_DESATIVA_LUZ:
25C6 C2B5            312                             CLR P3.5                        
25C8                 313     AP_PULA_LUZ:
25C8 22              314     RET
                     315     
                     316     ;------------------------------------------------------
                     317     ; DA TROCO AO MOTORISTA ATE O VALOR DO ACUMULADOR VIRAR 0
25C9                 318     DA_TROCO:       
25C9 C3              319             CLR C
                     320             ;CONVERTE PARA VALOR ABSOLUTO
25CA F8              321             MOV R0, A
25CB 74FF            322             MOV A, #255     
25CD 98              323             SUBB A, R0
25CE 04              324             INC A
                     325             
                     326             
                     327             ; 1 SEGUNDO ENTRE AS OPERAÇÕES
25CF 7801            328             MOV R0, #TEMPO_OPERACAO_MOEDA
                     329                                     
25D1                 330             DT_LOOP:
25D1 C3              331                     CLR C
                     332             
25D2 B1F2            333                     CALL LCD_ESCREVE_TROCO
                     334                     
25D4 B1E0            335                     CALL REPOEM_MOEDA
                     336                     
25D6 B1E9            337                     CALL LIBERA_MOEDA               
                     338                                     
                     339                     
25D8 C3              340                     CLR C
25D9 9401            341                     SUBB A, #1
                     342     
25DB 70F4            343             JNZ DT_LOOP
                     344             
25DD B1F2            345             CALL LCD_ESCREVE_TROCO
                     346     
25DF 22              347     RET
                     348     
25E0                 349     REPOEM_MOEDA:
                     350                     ; ABRE SM (REPOEM MOEDA)
                     351                     
25E0 D2B2            352                     SETB P3.2
25E2 D124            353                     CALL AGUARDA_N_SEGUNDOS
A51 MACRO ASSEMBLER  PROJETO                                                              10/17/2015 12:37:49 PAGE     5

                     354     
                     355                     ; FECHA SM
25E4 C2B2            356                     CLR P3.2
25E6 D124            357                     CALL AGUARDA_N_SEGUNDOS
25E8 22              358     RET
25E9                 359     LIBERA_MOEDA:
                     360                     ; LIBERA MOEDA (LM)
25E9 D2B3            361                     SETB P3.3               
25EB D124            362                     CALL AGUARDA_N_SEGUNDOS
                     363     
                     364                     ; FECHA LIBERA MOEDA (LM)               
25ED C2B3            365                     CLR P3.3
25EF D124            366                     CALL AGUARDA_N_SEGUNDOS
25F1 22              367     RET
                     368     
25F2                 369     LCD_ESCREVE_TROCO:
25F2 D156            370             CALL LCD_LIMPA_TELA
25F4 903250          371             MOV DPTR, #MSG_TROCO
25F7 D1A4            372             CALL LCD_ENVIA_FRASE
25F9 B1FC            373             CALL LCD_ENVIA_VALOR_A
25FB 22              374     RET
                     375     
25FC                 376     LCD_ENVIA_VALOR_A:
25FC C0E0            377                     PUSH ACC
                     378                     
                     379                     ; MIAAAUUU
25FE B40A0A          380                     CJNE A, #10, LEVA_VALOR_NORMAL
2601 7431            381                             MOV A, #49
2603 D195            382                             CALL LCD_ENVIA_CHAR
2605 7430            383                             MOV A, #48
2607 D195            384                             CALL LCD_ENVIA_CHAR
2609 8008            385                             JMP LEVA_RET
260B                 386                     LEVA_VALOR_NORMAL:
260B 2430            387                             ADD A, #48
260D D195            388                             CALL LCD_ENVIA_CHAR
260F 7420            389                             MOV A, #' '
2611 D195            390                             CALL LCD_ENVIA_CHAR             
2613                 391                     LEVA_RET:               
2613 D0E0            392                     POP ACC
2615 22              393     RET
                     394     
                     395     ;------------------------------------------------------
                     396     ; SINALIZA ABERTURA DA CANCELA (AC = 1)
2616                 397     ABRE_CANCELA: 
2616 D156            398             CALL LCD_LIMPA_TELA
2618 D297            399             SETB P1.7
261A 903300          400             MOV DPTR, #MSG_CANCELA_ABERTA
261D D1A4            401             CALL LCD_ENVIA_FRASE
261F 22              402     RET
                     403     
                     404     ;------------------------------------------------------
                     405     ; AGUARDA VEICULO PASSAR PELO PEDAGIO (S1 = 0 INDICA A PASSAGEM DO VEICULO)
2620                 406     AGUARDA_PASSAGEM_VEICULO:
2620                 407             APV_LOOP:
2620 2090FD          408             JB P1.0, APV_LOOP
2623 22              409     RET
                     410             
                     411     ;------------------------------------------------------
                     412     ; AGUARDA N SEGUNDOS (R0 DEVE CONTER O NUMERO DE SEGUNDOS A SEREM ESPERADOS)
2624                 413     AGUARDA_N_SEGUNDOS:
2624 C000            414             PUSH 0
2626 C001            415             PUSH 1
2628                 416             ANS_LOOP:       
2628 7914            417                     MOV R1, #20
262A                 418                     ANS_SEC_LOOP:
262A C2CF            419                             CLR TF2
A51 MACRO ASSEMBLER  PROJETO                                                              10/17/2015 12:37:49 PAGE     6

262C D2CA            420                             SETB TR2
262E 30CFFD          421                             JNB TF2, $      
2631 C2CA            422                             CLR TR2                 
2633 D9F5            423                     DJNZ R1, ANS_SEC_LOOP
2635 D8F1            424             DJNZ R0, ANS_LOOP
2637 D001            425             POP 1
2639 D000            426             POP 0
                     427     
263B 22              428     RET             
                     429     
                     430     
                     431     
                     432     
                     433     
                     434     ;------------------------------------------------------
                     435     ; STEPS DE INICIALIZACAO DO LCD
263C                 436     LCD_INIT_STEP1:
263C 90FF10          437             MOV DPTR, #LCD_COMANDO
263F 7438            438             MOV A, #38h
2641 F0              439             MOVX @DPTR, A           
2642 D1C2            440             CALL ATRASO_LCD
2644 22              441     RET
                     442     
                     443     ;------------------------------------------------------
                     444     ; STEPS DE INICIALIZACAO DO LCD
2645                 445     LCD_INIT_STEP2:
                     446             ; Controle LCD - 0 0 0 0 1 D C B
                     447             ;                          - 0 0 0 0 1 1 0 0 ou 0Ch
                     448             
2645 90FF10          449             MOV DPTR, #LCD_COMANDO
2648 740C            450             MOV A, #0Ch
264A F0              451             MOVX @DPTR, A   
264B D1C2            452             CALL ATRASO_LCD
                     453             
                     454             ; Exibição LCD - 0 0 0 0 0 1 I/D S
                     455             ;                          - 0 0 0 0 1 1  1  0  ou 06h
264D 90FF10          456             MOV DPTR, #LCD_COMANDO
2650 7406            457             MOV A, #06h
2652 F0              458             MOVX @DPTR, A   
2653 D1C2            459             CALL ATRASO_LCD
2655 22              460     RET
                     461     
                     462     ;------------------------------------------------------
                     463     ; LIMPA TELA DO LCD
2656                 464     LCD_LIMPA_TELA:
2656 C0E0            465             PUSH ACC
2658 C083            466             PUSH DPH
265A C082            467             PUSH DPL
265C 90FF10          468             MOV DPTR, #LCD_COMANDO
265F 7401            469             MOV A, #1
2661 F0              470             MOVX @DPTR, A   
2662 D1CB            471             CALL ATRASO_LIMPA_LCD
2664 D082            472             POP DPL
2666 D083            473             POP DPH
2668 D0E0            474             POP ACC
266A 22              475     RET
                     476     
266B                 477     LCD_PRIMEIRA_LINHA:
266B C0E0            478             PUSH ACC
266D C083            479             PUSH DPH
266F C082            480             PUSH DPL
2671 90FF10          481             MOV DPTR, #LCD_COMANDO
2674 7480            482             MOV A, #80h
2676 F0              483             MOVX @DPTR, A
2677 D1C2            484             CALL ATRASO_LCD
2679 D082            485             POP DPL
A51 MACRO ASSEMBLER  PROJETO                                                              10/17/2015 12:37:49 PAGE     7

267B D083            486             POP DPH
267D D0E0            487             POP ACC
267F 22              488     RET
                     489     
2680                 490     LCD_SEGUNDA_LINHA:
2680 C0E0            491             PUSH ACC
2682 C083            492             PUSH DPH
2684 C082            493             PUSH DPL
2686 90FF10          494             MOV DPTR, #LCD_COMANDO
2689 74C0            495             MOV A, #0C0h
268B F0              496             MOVX @DPTR, A
268C D1C2            497             CALL ATRASO_LCD
268E D082            498             POP DPL
2690 D083            499             POP DPH
2692 D0E0            500             POP ACC
2694 22              501     RET
                     502     ;------------------------------------------------------
                     503     ; ENVIA PARA O LCD O VALOR DO ACUMULADOR
2695                 504     LCD_ENVIA_CHAR:
2695 C083            505             PUSH DPH
2697 C082            506             PUSH DPL
2699 90FF11          507             MOV DPTR, #LCD_DADO
269C F0              508             MOVX @DPTR, A   
269D D1C2            509             CALL ATRASO_LCD
269F D082            510             POP DPL
26A1 D083            511             POP DPH
26A3 22              512     RET
                     513     
                     514     ;------------------------------------------------------
                     515     ; ENVIA MENSAGEM PARA O LCD (DPTR precisa estar alinhado na mensagem)
26A4                 516     LCD_ENVIA_FRASE:
                     517     
26A4 C083            518             PUSH DPH
26A6 C082            519             PUSH DPL        
26A8 C0E0            520             PUSH ACC
26AA                 521             LEF_LOOP:       
26AA E4              522                     CLR A
26AB 93              523                     MOVC A, @A+DPTR
                     524     
26AC 600D            525                     JZ LEF_RETURN                   
                     526     
26AE C083            527                     PUSH DPH
26B0 C082            528                     PUSH DPL        
                     529                     
26B2 D195            530                     CALL LCD_ENVIA_CHAR
                     531     
26B4 D082            532                     POP DPL
26B6 D083            533                     POP DPH
                     534     
26B8 A3              535                     INC DPTR
26B9 80EF            536             JMP LEF_LOOP
26BB                 537     LEF_RETURN:
26BB D0E0            538     POP ACC
26BD D082            539     POP DPL
26BF D083            540     POP DPH
                     541     
26C1 22              542     RET
                     543     
                     544     ;------------------------------------------------------
                     545     ; Atraso necessário para o display 
26C2                 546     ATRASO_LCD: 
26C2 C000            547     PUSH 0
26C4 7812            548             MOV R0, #18
26C6 D8FE            549             DJNZ R0, $
26C8 D000            550     POP 0
26CA 22              551     RET
A51 MACRO ASSEMBLER  PROJETO                                                              10/17/2015 12:37:49 PAGE     8

                     552     
                     553     ;------------------------------------------------------                 
                     554     ; Atraso necessário para limpar o display - 41 x 40us = 1,65ms
26CB                 555     ATRASO_LIMPA_LCD:
26CB C001            556     PUSH 1
26CD 7929            557             MOV  R1, #41
26CF                 558             VOLTA_ATRASO_LIMPA_LCD:
26CF D1C2            559             CALL ATRASO_LCD
26D1 D9FC            560             DJNZ R1, VOLTA_ATRASO_LIMPA_LCD
26D3 D001            561     POP 1
26D5 22              562     RET
                     563     
                     564     
                     565     
3000                 566     ORG 3000H
3000                 567             MSG_AGUARDANDO_VEICULO:
3000 41677561        568             DB "Aguardando...", 0
3004 7264616E                
3008 646F2E2E                
300C 2E00                    
3050                 569     ORG 3050H
3050                 570             MSG_MOTO:
3050 4D6F746F        571             DB "Moto R$ 0,00", 0
3054 20522420                
3058 302C3030                
305C 00                      
3100                 572     ORG 3100H
3100                 573             MSG_CARRO:
3100 43617272        574             DB "Carro R$ 5,00", 0
3104 6F205224                
3108 20352C30                
310C 3000                    
3150                 575     ORG 3150H
3150                 576             MSG_3_EIXOS:
3150 33204569        577             DB "3 Eixos R$ 7,00", 0
3154 786F7320                
3158 52242037                
315C 2C303000                
3200                 578     ORG 3200H
3200                 579             MSG_4_EIXOS:
3200 34204569        580             DB "4 Eixos R$ 10,00", 0
3204 786F7320                
3208 52242031                
320C 302C3030                
3210 00                      
3250                 581     ORG 3250H
3250                 582             MSG_TROCO:
3250 54726F63        583             DB "Troco: R$ ", 0
3254 6F3A2052                
3258 242000                  
3300                 584     ORG 3300H
3300                 585             MSG_CANCELA_ABERTA:
3300 43616E63        586             DB "Cancela Aberta..", 0
3304 656C6120                
3308 41626572                
330C 74612E2E                
3310 00                      
3350                 587     ORG 3350H
3350                 588             MSG_DEBITO:
3350 44657665        589             DB "Deve: R$ ", 0
3354 3A205224                
3358 2000                    
                     590     
                     591     
                     592     
                     593     END
A51 MACRO ASSEMBLER  PROJETO                                                              10/17/2015 12:37:49 PAGE     9

SYMBOL TABLE LISTING
------ ----- -------


N A M E                   T Y P E  V A L U E   ATTRIBUTES

ABRE_CANCELA . . . . . .  C ADDR   2616H   A   
AC . . . . . . . . . . .  B ADDR   00D0H.6 A   
ACC. . . . . . . . . . .  D ADDR   00E0H   A   
AGUARDA_N_SEGUNDOS . . .  C ADDR   2624H   A   
AGUARDA_PAGAMENTO. . . .  C ADDR   2571H   A   
AGUARDA_PASSAGEM_VEICULO  C ADDR   2620H   A   
ANS_LOOP . . . . . . . .  C ADDR   2628H   A   
ANS_SEC_LOOP . . . . . .  C ADDR   262AH   A   
APV_LOOP . . . . . . . .  C ADDR   2620H   A   
AP_DESATIVA_LUZ. . . . .  C ADDR   25C6H   A   
AP_FORA_NOTA . . . . . .  C ADDR   259FH   A   
AP_LOOP. . . . . . . . .  C ADDR   257BH   A   
AP_PULA_LUZ. . . . . . .  C ADDR   25C8H   A   
AP_PULA_NOTA_2 . . . . .  C ADDR   2596H   A   
AP_PULA_NOTA_5 . . . . .  C ADDR   259FH   A   
AP_RET . . . . . . . . .  C ADDR   25ADH   A   
AP_RUN . . . . . . . . .  C ADDR   2575H   A   
AP_TROCO . . . . . . . .  C ADDR   25A9H   A   
ATRASO_LCD . . . . . . .  C ADDR   26C2H   A   
ATRASO_LIMPA_LCD . . . .  C ADDR   26CBH   A   
B. . . . . . . . . . . .  D ADDR   00F0H   A   
CP_RL2 . . . . . . . . .  B ADDR   00C8H.0 A   
CY . . . . . . . . . . .  B ADDR   00D0H.7 A   
C_T2 . . . . . . . . . .  B ADDR   00C8H.1 A   
DA_TROCO . . . . . . . .  C ADDR   25C9H   A   
DPH. . . . . . . . . . .  D ADDR   0083H   A   
DPL. . . . . . . . . . .  D ADDR   0082H   A   
DT_LOOP. . . . . . . . .  C ADDR   25D1H   A   
EA . . . . . . . . . . .  B ADDR   00A8H.7 A   
EPV_LOOP . . . . . . . .  C ADDR   2543H   A   
ES . . . . . . . . . . .  B ADDR   00A8H.4 A   
ESPERA_POR_VEICULO . . .  C ADDR   2543H   A   
ET0. . . . . . . . . . .  B ADDR   00A8H.1 A   
ET1. . . . . . . . . . .  B ADDR   00A8H.3 A   
ET2. . . . . . . . . . .  B ADDR   00A8H.5 A   
EX0. . . . . . . . . . .  B ADDR   00A8H.0 A   
EX1. . . . . . . . . . .  B ADDR   00A8H.2 A   
EXEN2. . . . . . . . . .  B ADDR   00C8H.3 A   
EXF2 . . . . . . . . . .  B ADDR   00C8H.6 A   
F0 . . . . . . . . . . .  B ADDR   00D0H.5 A   
IE . . . . . . . . . . .  D ADDR   00A8H   A   
IE0. . . . . . . . . . .  B ADDR   0088H.1 A   
IE1. . . . . . . . . . .  B ADDR   0088H.3 A   
INT0 . . . . . . . . . .  B ADDR   00B0H.2 A   
INT1 . . . . . . . . . .  B ADDR   00B0H.3 A   
IP . . . . . . . . . . .  D ADDR   00B8H   A   
IT0. . . . . . . . . . .  B ADDR   0088H.0 A   
IT1. . . . . . . . . . .  B ADDR   0088H.2 A   
LCD_COMANDO. . . . . . .  N NUMB   FF10H   A   
LCD_DADO . . . . . . . .  N NUMB   FF11H   A   
LCD_ENVIA_CHAR . . . . .  C ADDR   2695H   A   
LCD_ENVIA_FRASE. . . . .  C ADDR   26A4H   A   
LCD_ENVIA_VALOR_A. . . .  C ADDR   25FCH   A   
LCD_ESCREVE_TROCO. . . .  C ADDR   25F2H   A   
LCD_INIT_STEP1 . . . . .  C ADDR   263CH   A   
LCD_INIT_STEP2 . . . . .  C ADDR   2645H   A   
LCD_LIMPA_TELA . . . . .  C ADDR   2656H   A   
LCD_PRIMEIRA_LINHA . . .  C ADDR   266BH   A   
LCD_SEGUNDA_LINHA. . . .  C ADDR   2680H   A   
LEF_LOOP . . . . . . . .  C ADDR   26AAH   A   
A51 MACRO ASSEMBLER  PROJETO                                                              10/17/2015 12:37:49 PAGE    10

LEF_RETURN . . . . . . .  C ADDR   26BBH   A   
LEVA_RET . . . . . . . .  C ADDR   2613H   A   
LEVA_VALOR_NORMAL. . . .  C ADDR   260BH   A   
LIBERA_MOEDA . . . . . .  C ADDR   25E9H   A   
MSG_3_EIXOS. . . . . . .  C ADDR   3150H   A   
MSG_4_EIXOS. . . . . . .  C ADDR   3200H   A   
MSG_AGUARDANDO_VEICULO .  C ADDR   3000H   A   
MSG_CANCELA_ABERTA . . .  C ADDR   3300H   A   
MSG_CARRO. . . . . . . .  C ADDR   3100H   A   
MSG_DEBITO . . . . . . .  C ADDR   3350H   A   
MSG_MOTO . . . . . . . .  C ADDR   3050H   A   
MSG_TROCO. . . . . . . .  C ADDR   3250H   A   
OV . . . . . . . . . . .  B ADDR   00D0H.2 A   
P. . . . . . . . . . . .  B ADDR   00D0H.0 A   
P0 . . . . . . . . . . .  D ADDR   0080H   A   
P1 . . . . . . . . . . .  D ADDR   0090H   A   
P2 . . . . . . . . . . .  D ADDR   00A0H   A   
P3 . . . . . . . . . . .  D ADDR   00B0H   A   
PCON . . . . . . . . . .  D ADDR   0087H   A   
PEGA_VALOR_DEBITO. . . .  C ADDR   2549H   A   
PS . . . . . . . . . . .  B ADDR   00B8H.4 A   
PSW. . . . . . . . . . .  D ADDR   00D0H   A   
PT0. . . . . . . . . . .  B ADDR   00B8H.1 A   
PT1. . . . . . . . . . .  B ADDR   00B8H.3 A   
PT2. . . . . . . . . . .  B ADDR   00B8H.5 A   
PULA_FIM_VALOR_DEBITO. .  C ADDR   256CH   A   
PULA_VALOR_3_EIXOS . . .  C ADDR   255DH   A   
PULA_VALOR_4_EIXOS . . .  C ADDR   2553H   A   
PULA_VALOR_CARRO . . . .  C ADDR   2567H   A   
PX0. . . . . . . . . . .  B ADDR   00B8H.0 A   
PX1. . . . . . . . . . .  B ADDR   00B8H.2 A   
RB8. . . . . . . . . . .  B ADDR   0098H.2 A   
RCAP2H . . . . . . . . .  D ADDR   00CBH   A   
RCAP2L . . . . . . . . .  D ADDR   00CAH   A   
RCLK . . . . . . . . . .  B ADDR   00C8H.5 A   
RD . . . . . . . . . . .  B ADDR   00B0H.7 A   
REINICIA . . . . . . . .  C ADDR   252FH   A   
REINICIA_CANCELA . . . .  C ADDR   2517H   A   
REN. . . . . . . . . . .  B ADDR   0098H.4 A   
REPOEM_MOEDA . . . . . .  C ADDR   25E0H   A   
RESETA_LUZ_ALERTA. . . .  C ADDR   25B0H   A   
RI . . . . . . . . . . .  B ADDR   0098H.0 A   
RS0. . . . . . . . . . .  B ADDR   00D0H.3 A   
RS1. . . . . . . . . . .  B ADDR   00D0H.4 A   
RXD. . . . . . . . . . .  B ADDR   00B0H.0 A   
SBUF . . . . . . . . . .  D ADDR   0099H   A   
SCON . . . . . . . . . .  D ADDR   0098H   A   
SM0. . . . . . . . . . .  B ADDR   0098H.7 A   
SM1. . . . . . . . . . .  B ADDR   0098H.6 A   
SM2. . . . . . . . . . .  B ADDR   0098H.5 A   
SP . . . . . . . . . . .  D ADDR   0081H   A   
STATUS_LUZ_ALERTA. . . .  C ADDR   25B7H   A   
T0 . . . . . . . . . . .  B ADDR   00B0H.4 A   
T1 . . . . . . . . . . .  B ADDR   00B0H.5 A   
T2 . . . . . . . . . . .  B ADDR   0090H.0 A   
T2CON. . . . . . . . . .  D ADDR   00C8H   A   
T2EX . . . . . . . . . .  B ADDR   0090H.1 A   
TB8. . . . . . . . . . .  B ADDR   0098H.3 A   
TCLK . . . . . . . . . .  B ADDR   00C8H.4 A   
TCON . . . . . . . . . .  D ADDR   0088H   A   
TEMPO_LIGA_ALERTA. . . .  N NUMB   001EH   A   
TEMPO_LUZ_ALERTA . . . .  N NUMB   0002H   A   
TEMPO_OPERACAO_MOEDA . .  N NUMB   0001H   A   
TF0. . . . . . . . . . .  B ADDR   0088H.5 A   
TF1. . . . . . . . . . .  B ADDR   0088H.7 A   
TF2. . . . . . . . . . .  B ADDR   00C8H.7 A   
A51 MACRO ASSEMBLER  PROJETO                                                              10/17/2015 12:37:49 PAGE    11

TH0. . . . . . . . . . .  D ADDR   008CH   A   
TH1. . . . . . . . . . .  D ADDR   008DH   A   
TH2. . . . . . . . . . .  D ADDR   00CDH   A   
TI . . . . . . . . . . .  B ADDR   0098H.1 A   
TL0. . . . . . . . . . .  D ADDR   008AH   A   
TL1. . . . . . . . . . .  D ADDR   008BH   A   
TL2. . . . . . . . . . .  D ADDR   00CCH   A   
TMOD . . . . . . . . . .  D ADDR   0089H   A   
TR0. . . . . . . . . . .  B ADDR   0088H.4 A   
TR1. . . . . . . . . . .  B ADDR   0088H.6 A   
TR2. . . . . . . . . . .  B ADDR   00C8H.2 A   
TXD. . . . . . . . . . .  B ADDR   00B0H.1 A   
VALOR_DEBITO . . . . . .    REG    R7          
VOLTA_ATRASO_LIMPA_LCD .  C ADDR   26CFH   A   
WR . . . . . . . . . . .  B ADDR   00B0H.6 A   


REGISTER BANK(S) USED: 0 


ASSEMBLY COMPLETE.  0 WARNING(S), 0 ERROR(S)
